; Function Attrs: nounwind uwtable
define internal noundef i32 @_dt_ctl_switch_mode_to_by_view(ptr noundef %0) #0 {
  %2 = load ptr, ptr getelementptr inbounds nuw (i8, ptr @darktable, i64 88), align 8, !tbaa !107
  %3 = getelementptr inbounds nuw i8, ptr %2, i64 896
  store i32 0, ptr %3, align 8, !tbaa !103
  %4 = getelementptr inbounds nuw i8, ptr %2, i64 900
  store i32 0, ptr %4, align 4, !tbaa !104
  %5 = load ptr, ptr getelementptr inbounds nuw (i8, ptr @darktable, i64 104), align 8, !tbaa !108
  %6 = load ptr, ptr %5, align 8, !tbaa !109
  %7 = tail call ptr @dt_ui_center(ptr noundef %6) #13
  tail call void @gtk_widget_set_tooltip_text(ptr noundef %7, ptr noundef nonnull @.str.32) #13
  tail call void @gtk_widget_grab_focus(ptr noundef %7) #13
  %8 = load ptr, ptr getelementptr inbounds nuw (i8, ptr @darktable, i64 80), align 8, !tbaa !6
  %9 = tail call i32 @dt_view_manager_switch_by_view(ptr noundef %8, ptr noundef %0) #13
  ret i32 0
}